target datalayout = "e-m:e-p270:32:32-p271:32:32-p272:64:64-i64:64-i128:128-f80:128-n8:16:32:64-S128"
target triple = "x86_64-pc-linux-gnu"

%struct.test_fixture = type { ptr, i32, ptr, ptr, ptr, ptr, i32 }
%struct.ossl_cmp_ctx_st = type { ptr, ptr, ptr, i32, ptr, ptr, ptr, ptr, ptr, i32, ptr, ptr, i32, i32, i32, i32, i64, ptr, ptr, i32, i32, ptr, ptr, ptr, ptr, ptr, i32, i32, i32, ptr, ptr, ptr, ptr, ptr, i64, ptr, i32, i32, ptr, ptr, ptr, ptr, ptr, ptr, ptr, ptr, i32, i32, ptr, ptr, i32, ptr, ptr, i32, ptr, ptr, i32, i32, ptr, ptr, i32, i32, ptr, ptr, i32, ptr, i32, ptr, i32, ptr, ptr, ptr, ptr, ptr, ptr }

@ir_rmprotection = internal global ptr null, align 8
@.str.14 = private unnamed_addr constant [31 x i8] c"../openssl/test/cmp_vfy_test.c\00", align 1
@.str.71 = private unnamed_addr constant [31 x i8] c"test_msg_check_recipient_nonce\00", align 1
@__const.test_msg_check_recipient_nonce.rec_nonce = private unnamed_addr constant [16 x i8] c"H\F1q\1F\E5\AF\1C\8B!\97\\\84tI\BA2", align 16

; Function Attrs: nounwind uwtable
define internal void @tear_down(ptr noundef %0) #0 {
  %2 = alloca ptr, align 8
  store ptr %0, ptr %2, align 8, !tbaa !24
  %3 = load ptr, ptr %2, align 8, !tbaa !24
  %4 = getelementptr inbounds nuw %struct.test_fixture, ptr %3, i32 0, i32 3
  %5 = load ptr, ptr %4, align 8, !tbaa !31
  call void @OSSL_CMP_MSG_free(ptr noundef %5)
  %6 = load ptr, ptr %2, align 8, !tbaa !24
  %7 = getelementptr inbounds nuw %struct.test_fixture, ptr %6, i32 0, i32 2
  %8 = load ptr, ptr %7, align 8, !tbaa !32
  call void @OSSL_CMP_CTX_free(ptr noundef %8)
  %9 = load ptr, ptr %2, align 8, !tbaa !24
  call void @CRYPTO_free(ptr noundef %9, ptr noundef @.str.14, i32 noundef 47)
  ret void
}

; Function Attrs: nounwind uwtable
define internal void @setup_check_update(ptr noundef %0, i32 noundef %1, ptr noundef %2, i32 noundef %3, ptr noundef %4, ptr noundef %5) #0 {
  %7 = alloca ptr, align 8
  %8 = alloca i32, align 4
  %9 = alloca ptr, align 8
  %10 = alloca i32, align 4
  %11 = alloca ptr, align 8
  %12 = alloca ptr, align 8
  %13 = alloca ptr, align 8
  %14 = alloca i32, align 4
  %15 = alloca ptr, align 8
  store ptr %0, ptr %7, align 8, !tbaa !66
  store i32 %1, ptr %8, align 4, !tbaa !26
  store ptr %2, ptr %9, align 8, !tbaa !68
  store i32 %3, ptr %10, align 4, !tbaa !26
  store ptr %4, ptr %11, align 8, !tbaa !23
  store ptr %5, ptr %12, align 8, !tbaa !23
  call void @llvm.lifetime.start.p0(i64 8, ptr %13) #7
  %16 = load ptr, ptr %7, align 8, !tbaa !66
  %17 = load ptr, ptr %16, align 8, !tbaa !24
  %18 = getelementptr inbounds nuw %struct.test_fixture, ptr %17, i32 0, i32 2
  %19 = load ptr, ptr %18, align 8, !tbaa !32
  store ptr %19, ptr %13, align 8, !tbaa !61
  call void @llvm.lifetime.start.p0(i64 4, ptr %14) #7
  store i32 16, ptr %14, align 4, !tbaa !26
  %20 = load i32, ptr %8, align 4, !tbaa !26
  %21 = load ptr, ptr %7, align 8, !tbaa !66
  %22 = load ptr, ptr %21, align 8, !tbaa !24
  %23 = getelementptr inbounds nuw %struct.test_fixture, ptr %22, i32 0, i32 1
  store i32 %20, ptr %23, align 8, !tbaa !27
  %24 = load ptr, ptr %9, align 8, !tbaa !68
  %25 = load ptr, ptr %7, align 8, !tbaa !66
  %26 = load ptr, ptr %25, align 8, !tbaa !24
  %27 = getelementptr inbounds nuw %struct.test_fixture, ptr %26, i32 0, i32 5
  store ptr %24, ptr %27, align 8, !tbaa !69
  %28 = load i32, ptr %10, align 4, !tbaa !26
  %29 = load ptr, ptr %7, align 8, !tbaa !66
  %30 = load ptr, ptr %29, align 8, !tbaa !24
  %31 = getelementptr inbounds nuw %struct.test_fixture, ptr %30, i32 0, i32 6
  store i32 %28, ptr %31, align 8, !tbaa !57
  %32 = load ptr, ptr @ir_rmprotection, align 8, !tbaa !9
  %33 = call ptr @OSSL_CMP_MSG_dup(ptr noundef %32)
  %34 = load ptr, ptr %7, align 8, !tbaa !66
  %35 = load ptr, ptr %34, align 8, !tbaa !24
  %36 = getelementptr inbounds nuw %struct.test_fixture, ptr %35, i32 0, i32 3
  store ptr %33, ptr %36, align 8, !tbaa !31
  %37 = load ptr, ptr %7, align 8, !tbaa !66
  %38 = load ptr, ptr %37, align 8, !tbaa !24
  %39 = getelementptr inbounds nuw %struct.test_fixture, ptr %38, i32 0, i32 3
  %40 = load ptr, ptr %39, align 8, !tbaa !31
  %41 = icmp eq ptr %40, null
  br i1 %41, label %52, label %42

42:                                               ; preds = %6
  %43 = load ptr, ptr %12, align 8, !tbaa !23
  %44 = icmp ne ptr %43, null
  br i1 %44, label %45, label %56

45:                                               ; preds = %42
  %46 = load ptr, ptr %13, align 8, !tbaa !61
  %47 = getelementptr inbounds nuw %struct.ossl_cmp_ctx_st, ptr %46, i32 0, i32 41
  %48 = load ptr, ptr %12, align 8, !tbaa !23
  %49 = load i32, ptr %14, align 4, !tbaa !26
  %50 = call i32 @ossl_cmp_asn1_octet_string_set1_bytes(ptr noundef %47, ptr noundef %48, i32 noundef %49)
  %51 = icmp ne i32 %50, 0
  br i1 %51, label %56, label %52

52:                                               ; preds = %45, %6
  %53 = load ptr, ptr %7, align 8, !tbaa !66
  %54 = load ptr, ptr %53, align 8, !tbaa !24
  call void @tear_down(ptr noundef %54)
  %55 = load ptr, ptr %7, align 8, !tbaa !66
  store ptr null, ptr %55, align 8, !tbaa !24
  br label %80

56:                                               ; preds = %45, %42
  %57 = load ptr, ptr %11, align 8, !tbaa !23
  %58 = icmp ne ptr %57, null
  br i1 %58, label %59, label %79

59:                                               ; preds = %56
  call void @llvm.lifetime.start.p0(i64 8, ptr %15) #7
  %60 = call ptr @ASN1_OCTET_STRING_new()
  store ptr %60, ptr %15, align 8, !tbaa !58
  %61 = load ptr, ptr %15, align 8, !tbaa !58
  %62 = icmp eq ptr %61, null
  br i1 %62, label %73, label %63

63:                                               ; preds = %59
  %64 = load ptr, ptr %15, align 8, !tbaa !58
  %65 = load ptr, ptr %11, align 8, !tbaa !23
  %66 = call i32 @ASN1_OCTET_STRING_set(ptr noundef %64, ptr noundef %65, i32 noundef 16)
  %67 = icmp ne i32 %66, 0
  br i1 %67, label %68, label %73

68:                                               ; preds = %63
  %69 = load ptr, ptr %13, align 8, !tbaa !61
  %70 = load ptr, ptr %15, align 8, !tbaa !58
  %71 = call i32 @OSSL_CMP_CTX_set1_transactionID(ptr noundef %69, ptr noundef %70)
  %72 = icmp ne i32 %71, 0
  br i1 %72, label %77, label %73

73:                                               ; preds = %68, %63, %59
  %74 = load ptr, ptr %7, align 8, !tbaa !66
  %75 = load ptr, ptr %74, align 8, !tbaa !24
  call void @tear_down(ptr noundef %75)
  %76 = load ptr, ptr %7, align 8, !tbaa !66
  store ptr null, ptr %76, align 8, !tbaa !24
  br label %77

77:                                               ; preds = %73, %68
  %78 = load ptr, ptr %15, align 8, !tbaa !58
  call void @ASN1_OCTET_STRING_free(ptr noundef %78)
  call void @llvm.lifetime.end.p0(i64 8, ptr %15) #7
  br label %79

79:                                               ; preds = %77, %56
  br label %80

80:                                               ; preds = %79, %52
  call void @llvm.lifetime.end.p0(i64 4, ptr %14) #7
  call void @llvm.lifetime.end.p0(i64 8, ptr %13) #7
  ret void
}

; Function Attrs: nounwind uwtable
define internal i32 @test_msg_check_recipient_nonce() #0 {
  %1 = alloca i32, align 4
  %2 = alloca [16 x i8], align 16
  %3 = alloca ptr, align 8
  %4 = alloca i32, align 4
  %5 = alloca i32, align 4
  call void @llvm.lifetime.start.p0(i64 16, ptr %2) #7
  call void @llvm.memcpy.p0.p0.i64(ptr align 16 %2, ptr align 16 @__const.test_msg_check_recipient_nonce.rec_nonce, i64 16, i1 false)
  call void @llvm.lifetime.start.p0(i64 8, ptr %3) #7
  %6 = call ptr @set_up(ptr noundef @.str.71)
  store ptr %6, ptr %3, align 8, !tbaa !24
  call void @llvm.lifetime.start.p0(i64 4, ptr %4) #7
  store i32 0, ptr %4, align 4, !tbaa !26
  %7 = load ptr, ptr %3, align 8, !tbaa !24
  %8 = icmp eq ptr %7, null
  br i1 %8, label %9, label %10

9:                                                ; preds = %0
  store i32 0, ptr %1, align 4
  store i32 1, ptr %5, align 4
  br label %20

10:                                               ; preds = %0
  %11 = getelementptr inbounds [16 x i8], ptr %2, i64 0, i64 0
  call void @setup_check_update(ptr noundef %3, i32 noundef 1, ptr noundef @allow_unprotected, i32 noundef 1, ptr noundef null, ptr noundef %11)
  %12 = load ptr, ptr %3, align 8, !tbaa !24
  %13 = icmp ne ptr %12, null
  br i1 %13, label %14, label %18

14:                                               ; preds = %10
  %15 = load ptr, ptr %3, align 8, !tbaa !24
  %16 = call i32 @execute_msg_check_test(ptr noundef %15)
  store i32 %16, ptr %4, align 4, !tbaa !26
  %17 = load ptr, ptr %3, align 8, !tbaa !24
  call void @tear_down(ptr noundef %17)
  br label %18

18:                                               ; preds = %14, %10
  %19 = load i32, ptr %4, align 4, !tbaa !26
  store i32 %19, ptr %1, align 4
  store i32 1, ptr %5, align 4
  br label %20

20:                                               ; preds = %18, %9
  call void @llvm.lifetime.end.p0(i64 4, ptr %4) #7
  call void @llvm.lifetime.end.p0(i64 8, ptr %3) #7
  call void @llvm.lifetime.end.p0(i64 16, ptr %2) #7
  %21 = load i32, ptr %1, align 4
  ret i32 %21
}