; Function Attrs: nounwind uwtable
define internal range(i32 0, 2) i32 @test_msg_check_recipient_nonce() #0 {
  %1 = alloca [16 x i8], align 16
  call void @llvm.lifetime.start.p0(i64 16, ptr nonnull %1) #7
  call void @llvm.memcpy.p0.p0.i64(ptr noundef nonnull align 16 dereferenceable(16) %1, ptr noundef nonnull align 16 dereferenceable(16) @__const.test_msg_check_recipient_nonce.rec_nonce, i64 16, i1 false)
  %2 = tail call fastcc ptr @set_up(ptr noundef nonnull @.str.71)
  %3 = icmp eq ptr %2, null
  br i1 %3, label %19, label %4

4:                                                ; preds = %0
  %5 = getelementptr inbounds nuw i8, ptr %2, i64 16
  %6 = load ptr, ptr %5, align 8, !tbaa !28
  %7 = getelementptr inbounds nuw i8, ptr %2, i64 8
  store i32 1, ptr %7, align 8, !tbaa !24
  %8 = getelementptr inbounds nuw i8, ptr %2, i64 40
  store ptr @allow_unprotected, ptr %8, align 8, !tbaa !38
  %9 = getelementptr inbounds nuw i8, ptr %2, i64 48
  store i32 1, ptr %9, align 8, !tbaa !39
  %10 = load ptr, ptr @ir_rmprotection, align 8, !tbaa !9
  %11 = tail call ptr @OSSL_CMP_MSG_dup(ptr noundef %10) #7
  %12 = getelementptr inbounds nuw i8, ptr %2, i64 24
  store ptr %11, ptr %12, align 8, !tbaa !27
  %13 = icmp eq ptr %11, null
  br i1 %13, label %.sink.split, label %14

14:                                               ; preds = %4
  %15 = getelementptr inbounds nuw i8, ptr %6, i64 288
  %16 = call i32 @ossl_cmp_asn1_octet_string_set1_bytes(ptr noundef nonnull %15, ptr noundef nonnull %1, i32 noundef 16) #7
  %.not25.i = icmp eq i32 %16, 0
  br i1 %.not25.i, label %.sink.split.sink.split, label %setup_check_update.exit

setup_check_update.exit:                          ; preds = %14
  %17 = call fastcc i32 @execute_msg_check_test(ptr noundef %2)
  br label %.sink.split.sink.split

.sink.split.sink.split:                           ; preds = %14, %setup_check_update.exit
  %.02.ph.ph = phi i32 [ %17, %setup_check_update.exit ], [ 0, %14 ]
  %.pre29.i = load ptr, ptr %12, align 8, !tbaa !27
  br label %.sink.split

.sink.split:                                      ; preds = %.sink.split.sink.split, %4
  %.sink = phi ptr [ null, %4 ], [ %.pre29.i, %.sink.split.sink.split ]
  %.02.ph = phi i32 [ 0, %4 ], [ %.02.ph.ph, %.sink.split.sink.split ]
  call void @OSSL_CMP_MSG_free(ptr noundef %.sink) #7
  %18 = load ptr, ptr %5, align 8, !tbaa !28
  call void @OSSL_CMP_CTX_free(ptr noundef %18) #7
  call void @CRYPTO_free(ptr noundef nonnull %2, ptr noundef nonnull @.str.14, i32 noundef 47) #7
  br label %19

19:                                               ; preds = %.sink.split, %0
  %.02 = phi i32 [ 0, %0 ], [ %.02.ph, %.sink.split ]
  call void @llvm.lifetime.end.p0(i64 16, ptr nonnull %1) #7
  ret i32 %.02
}